target datalayout = "e-m:e-p270:32:32-p271:32:32-p272:64:64-i64:64-i128:128-f80:128-n8:16:32:64-S128"
target triple = "x86_64-pc-linux-gnu"

; Function Attrs: nounwind uwtable
define internal i32 @nsvg__isdigit(i8 noundef signext %0) #0 {
  %2 = alloca i8, align 1
  store i8 %0, ptr %2, align 1, !tbaa !12
  %3 = load i8, ptr %2, align 1, !tbaa !12
  %4 = sext i8 %3 to i32
  %5 = icmp sge i32 %4, 48
  br i1 %5, label %6, label %10

6:                                                ; preds = %1
  %7 = load i8, ptr %2, align 1, !tbaa !12
  %8 = sext i8 %7 to i32
  %9 = icmp sle i32 %8, 57
  br label %10

10:                                               ; preds = %6, %1
  %11 = phi i1 [ false, %1 ], [ %9, %6 ]
  %12 = zext i1 %11 to i32
  ret i32 %12
}

; Function Attrs: nounwind uwtable
define internal ptr @nsvg__parseNumber(ptr noundef %0, ptr noundef %1, i32 noundef %2) #0 {
  %4 = alloca ptr, align 8
  %5 = alloca ptr, align 8
  %6 = alloca i32, align 4
  %7 = alloca i32, align 4
  %8 = alloca i32, align 4
  store ptr %0, ptr %4, align 8, !tbaa !4
  store ptr %1, ptr %5, align 8, !tbaa !4
  store i32 %2, ptr %6, align 4, !tbaa !10
  call void @llvm.lifetime.start.p0(i64 4, ptr %7) #11
  %9 = load i32, ptr %6, align 4, !tbaa !10
  %10 = sub nsw i32 %9, 1
  store i32 %10, ptr %7, align 4, !tbaa !10
  call void @llvm.lifetime.start.p0(i64 4, ptr %8) #11
  store i32 0, ptr %8, align 4, !tbaa !10
  %11 = load ptr, ptr %4, align 8, !tbaa !4
  %12 = load i8, ptr %11, align 1, !tbaa !12
  %13 = sext i8 %12 to i32
  %14 = icmp eq i32 %13, 45
  br i1 %14, label %20, label %15

15:                                               ; preds = %3
  %16 = load ptr, ptr %4, align 8, !tbaa !4
  %17 = load i8, ptr %16, align 1, !tbaa !12
  %18 = sext i8 %17 to i32
  %19 = icmp eq i32 %18, 43
  br i1 %19, label %20, label %35

20:                                               ; preds = %15, %3
  %21 = load i32, ptr %8, align 4, !tbaa !10
  %22 = load i32, ptr %7, align 4, !tbaa !10
  %23 = icmp slt i32 %21, %22
  br i1 %23, label %24, label %32

24:                                               ; preds = %20
  %25 = load ptr, ptr %4, align 8, !tbaa !4
  %26 = load i8, ptr %25, align 1, !tbaa !12
  %27 = load ptr, ptr %5, align 8, !tbaa !4
  %28 = load i32, ptr %8, align 4, !tbaa !10
  %29 = add nsw i32 %28, 1
  store i32 %29, ptr %8, align 4, !tbaa !10
  %30 = sext i32 %28 to i64
  %31 = getelementptr inbounds i8, ptr %27, i64 %30
  store i8 %26, ptr %31, align 1, !tbaa !12
  br label %32

32:                                               ; preds = %24, %20
  %33 = load ptr, ptr %4, align 8, !tbaa !4
  %34 = getelementptr inbounds nuw i8, ptr %33, i32 1
  store ptr %34, ptr %4, align 8, !tbaa !4
  br label %35

35:                                               ; preds = %32, %15
  br label %36

36:                                               ; preds = %60, %35
  %37 = load ptr, ptr %4, align 8, !tbaa !4
  %38 = load i8, ptr %37, align 1, !tbaa !12
  %39 = sext i8 %38 to i32
  %40 = icmp ne i32 %39, 0
  br i1 %40, label %41, label %46

41:                                               ; preds = %36
  %42 = load ptr, ptr %4, align 8, !tbaa !4
  %43 = load i8, ptr %42, align 1, !tbaa !12
  %44 = call i32 @nsvg__isdigit(i8 noundef signext %43)
  %45 = icmp ne i32 %44, 0
  br label %46

46:                                               ; preds = %41, %36
  %47 = phi i1 [ false, %36 ], [ %45, %41 ]
  br i1 %47, label %48, label %63

48:                                               ; preds = %46
  %49 = load i32, ptr %8, align 4, !tbaa !10
  %50 = load i32, ptr %7, align 4, !tbaa !10
  %51 = icmp slt i32 %49, %50
  br i1 %51, label %52, label %60

52:                                               ; preds = %48
  %53 = load ptr, ptr %4, align 8, !tbaa !4
  %54 = load i8, ptr %53, align 1, !tbaa !12
  %55 = load ptr, ptr %5, align 8, !tbaa !4
  %56 = load i32, ptr %8, align 4, !tbaa !10
  %57 = add nsw i32 %56, 1
  store i32 %57, ptr %8, align 4, !tbaa !10
  %58 = sext i32 %56 to i64
  %59 = getelementptr inbounds i8, ptr %55, i64 %58
  store i8 %54, ptr %59, align 1, !tbaa !12
  br label %60

60:                                               ; preds = %52, %48
  %61 = load ptr, ptr %4, align 8, !tbaa !4
  %62 = getelementptr inbounds nuw i8, ptr %61, i32 1
  store ptr %62, ptr %4, align 8, !tbaa !4
  br label %36, !llvm.loop !271

63:                                               ; preds = %46
  %64 = load ptr, ptr %4, align 8, !tbaa !4
  %65 = load i8, ptr %64, align 1, !tbaa !12
  %66 = sext i8 %65 to i32
  %67 = icmp eq i32 %66, 46
  br i1 %67, label %68, label %111

68:                                               ; preds = %63
  %69 = load i32, ptr %8, align 4, !tbaa !10
  %70 = load i32, ptr %7, align 4, !tbaa !10
  %71 = icmp slt i32 %69, %70
  br i1 %71, label %72, label %80

72:                                               ; preds = %68
  %73 = load ptr, ptr %4, align 8, !tbaa !4
  %74 = load i8, ptr %73, align 1, !tbaa !12
  %75 = load ptr, ptr %5, align 8, !tbaa !4
  %76 = load i32, ptr %8, align 4, !tbaa !10
  %77 = add nsw i32 %76, 1
  store i32 %77, ptr %8, align 4, !tbaa !10
  %78 = sext i32 %76 to i64
  %79 = getelementptr inbounds i8, ptr %75, i64 %78
  store i8 %74, ptr %79, align 1, !tbaa !12
  br label %80

80:                                               ; preds = %72, %68
  %81 = load ptr, ptr %4, align 8, !tbaa !4
  %82 = getelementptr inbounds nuw i8, ptr %81, i32 1
  store ptr %82, ptr %4, align 8, !tbaa !4
  br label %83

83:                                               ; preds = %107, %80
  %84 = load ptr, ptr %4, align 8, !tbaa !4
  %85 = load i8, ptr %84, align 1, !tbaa !12
  %86 = sext i8 %85 to i32
  %87 = icmp ne i32 %86, 0
  br i1 %87, label %88, label %93

88:                                               ; preds = %83
  %89 = load ptr, ptr %4, align 8, !tbaa !4
  %90 = load i8, ptr %89, align 1, !tbaa !12
  %91 = call i32 @nsvg__isdigit(i8 noundef signext %90)
  %92 = icmp ne i32 %91, 0
  br label %93

93:                                               ; preds = %88, %83
  %94 = phi i1 [ false, %83 ], [ %92, %88 ]
  br i1 %94, label %95, label %110

95:                                               ; preds = %93
  %96 = load i32, ptr %8, align 4, !tbaa !10
  %97 = load i32, ptr %7, align 4, !tbaa !10
  %98 = icmp slt i32 %96, %97
  br i1 %98, label %99, label %107

99:                                               ; preds = %95
  %100 = load ptr, ptr %4, align 8, !tbaa !4
  %101 = load i8, ptr %100, align 1, !tbaa !12
  %102 = load ptr, ptr %5, align 8, !tbaa !4
  %103 = load i32, ptr %8, align 4, !tbaa !10
  %104 = add nsw i32 %103, 1
  store i32 %104, ptr %8, align 4, !tbaa !10
  %105 = sext i32 %103 to i64
  %106 = getelementptr inbounds i8, ptr %102, i64 %105
  store i8 %101, ptr %106, align 1, !tbaa !12
  br label %107

107:                                              ; preds = %99, %95
  %108 = load ptr, ptr %4, align 8, !tbaa !4
  %109 = getelementptr inbounds nuw i8, ptr %108, i32 1
  store ptr %109, ptr %4, align 8, !tbaa !4
  br label %83, !llvm.loop !272

110:                                              ; preds = %93
  br label %111

111:                                              ; preds = %110, %63
  %112 = load ptr, ptr %4, align 8, !tbaa !4
  %113 = load i8, ptr %112, align 1, !tbaa !12
  %114 = sext i8 %113 to i32
  %115 = icmp eq i32 %114, 101
  br i1 %115, label %121, label %116

116:                                              ; preds = %111
  %117 = load ptr, ptr %4, align 8, !tbaa !4
  %118 = load i8, ptr %117, align 1, !tbaa !12
  %119 = sext i8 %118 to i32
  %120 = icmp eq i32 %119, 69
  br i1 %120, label %121, label %201

121:                                              ; preds = %116, %111
  %122 = load ptr, ptr %4, align 8, !tbaa !4
  %123 = getelementptr inbounds i8, ptr %122, i64 1
  %124 = load i8, ptr %123, align 1, !tbaa !12
  %125 = sext i8 %124 to i32
  %126 = icmp ne i32 %125, 109
  br i1 %126, label %127, label %201

127:                                              ; preds = %121
  %128 = load ptr, ptr %4, align 8, !tbaa !4
  %129 = getelementptr inbounds i8, ptr %128, i64 1
  %130 = load i8, ptr %129, align 1, !tbaa !12
  %131 = sext i8 %130 to i32
  %132 = icmp ne i32 %131, 120
  br i1 %132, label %133, label %201

133:                                              ; preds = %127
  %134 = load i32, ptr %8, align 4, !tbaa !10
  %135 = load i32, ptr %7, align 4, !tbaa !10
  %136 = icmp slt i32 %134, %135
  br i1 %136, label %137, label %145

137:                                              ; preds = %133
  %138 = load ptr, ptr %4, align 8, !tbaa !4
  %139 = load i8, ptr %138, align 1, !tbaa !12
  %140 = load ptr, ptr %5, align 8, !tbaa !4
  %141 = load i32, ptr %8, align 4, !tbaa !10
  %142 = add nsw i32 %141, 1
  store i32 %142, ptr %8, align 4, !tbaa !10
  %143 = sext i32 %141 to i64
  %144 = getelementptr inbounds i8, ptr %140, i64 %143
  store i8 %139, ptr %144, align 1, !tbaa !12
  br label %145

145:                                              ; preds = %137, %133
  %146 = load ptr, ptr %4, align 8, !tbaa !4
  %147 = getelementptr inbounds nuw i8, ptr %146, i32 1
  store ptr %147, ptr %4, align 8, !tbaa !4
  %148 = load ptr, ptr %4, align 8, !tbaa !4
  %149 = load i8, ptr %148, align 1, !tbaa !12
  %150 = sext i8 %149 to i32
  %151 = icmp eq i32 %150, 45
  br i1 %151, label %157, label %152

152:                                              ; preds = %145
  %153 = load ptr, ptr %4, align 8, !tbaa !4
  %154 = load i8, ptr %153, align 1, !tbaa !12
  %155 = sext i8 %154 to i32
  %156 = icmp eq i32 %155, 43
  br i1 %156, label %157, label %172

157:                                              ; preds = %152, %145
  %158 = load i32, ptr %8, align 4, !tbaa !10
  %159 = load i32, ptr %7, align 4, !tbaa !10
  %160 = icmp slt i32 %158, %159
  br i1 %160, label %161, label %169

161:                                              ; preds = %157
  %162 = load ptr, ptr %4, align 8, !tbaa !4
  %163 = load i8, ptr %162, align 1, !tbaa !12
  %164 = load ptr, ptr %5, align 8, !tbaa !4
  %165 = load i32, ptr %8, align 4, !tbaa !10
  %166 = add nsw i32 %165, 1
  store i32 %166, ptr %8, align 4, !tbaa !10
  %167 = sext i32 %165 to i64
  %168 = getelementptr inbounds i8, ptr %164, i64 %167
  store i8 %163, ptr %168, align 1, !tbaa !12
  br label %169

169:                                              ; preds = %161, %157
  %170 = load ptr, ptr %4, align 8, !tbaa !4
  %171 = getelementptr inbounds nuw i8, ptr %170, i32 1
  store ptr %171, ptr %4, align 8, !tbaa !4
  br label %172

172:                                              ; preds = %169, %152
  br label %173

173:                                              ; preds = %197, %172
  %174 = load ptr, ptr %4, align 8, !tbaa !4
  %175 = load i8, ptr %174, align 1, !tbaa !12
  %176 = sext i8 %175 to i32
  %177 = icmp ne i32 %176, 0
  br i1 %177, label %178, label %183

178:                                              ; preds = %173
  %179 = load ptr, ptr %4, align 8, !tbaa !4
  %180 = load i8, ptr %179, align 1, !tbaa !12
  %181 = call i32 @nsvg__isdigit(i8 noundef signext %180)
  %182 = icmp ne i32 %181, 0
  br label %183

183:                                              ; preds = %178, %173
  %184 = phi i1 [ false, %173 ], [ %182, %178 ]
  br i1 %184, label %185, label %200

185:                                              ; preds = %183
  %186 = load i32, ptr %8, align 4, !tbaa !10
  %187 = load i32, ptr %7, align 4, !tbaa !10
  %188 = icmp slt i32 %186, %187
  br i1 %188, label %189, label %197

189:                                              ; preds = %185
  %190 = load ptr, ptr %4, align 8, !tbaa !4
  %191 = load i8, ptr %190, align 1, !tbaa !12
  %192 = load ptr, ptr %5, align 8, !tbaa !4
  %193 = load i32, ptr %8, align 4, !tbaa !10
  %194 = add nsw i32 %193, 1
  store i32 %194, ptr %8, align 4, !tbaa !10
  %195 = sext i32 %193 to i64
  %196 = getelementptr inbounds i8, ptr %192, i64 %195
  store i8 %191, ptr %196, align 1, !tbaa !12
  br label %197

197:                                              ; preds = %189, %185
  %198 = load ptr, ptr %4, align 8, !tbaa !4
  %199 = getelementptr inbounds nuw i8, ptr %198, i32 1
  store ptr %199, ptr %4, align 8, !tbaa !4
  br label %173, !llvm.loop !273

200:                                              ; preds = %183
  br label %201

201:                                              ; preds = %200, %127, %121, %116
  %202 = load ptr, ptr %5, align 8, !tbaa !4
  %203 = load i32, ptr %8, align 4, !tbaa !10
  %204 = sext i32 %203 to i64
  %205 = getelementptr inbounds i8, ptr %202, i64 %204
  store i8 0, ptr %205, align 1, !tbaa !12
  %206 = load ptr, ptr %4, align 8, !tbaa !4
  call void @llvm.lifetime.end.p0(i64 4, ptr %8) #11
  call void @llvm.lifetime.end.p0(i64 4, ptr %7) #11
  ret ptr %206
}