; Function Attrs: nofree norecurse nosync nounwind memory(argmem: readwrite) uwtable
define internal fastcc noundef ptr @nsvg__parseNumber(ptr noundef readonly captures(ret: address, provenance) %0, ptr noundef nonnull writeonly captures(none) %1) unnamed_addr #24 {
  %3 = load i8, ptr %0, align 1, !tbaa !4
  switch i8 %3, label %6 [
    i8 45, label %4
    i8 43, label %4
  ]

4:                                                ; preds = %2, %2
  store i8 %3, ptr %1, align 1, !tbaa !4
  %5 = getelementptr inbounds nuw i8, ptr %0, i64 1
  %.pre = load i8, ptr %5, align 1, !tbaa !4
  br label %6

6:                                                ; preds = %2, %4
  %7 = phi i8 [ %.pre, %4 ], [ %3, %2 ]
  %.064 = phi ptr [ %5, %4 ], [ %0, %2 ]
  %.0 = phi i32 [ 1, %4 ], [ 0, %2 ]
  %.not95 = icmp eq i8 %7, 0
  br i1 %.not95, label %.critedge4, label %.lr.ph

.lr.ph:                                           ; preds = %6, %17
  %8 = phi i8 [ %19, %17 ], [ %7, %6 ]
  %.297 = phi i32 [ %.3, %17 ], [ %.0, %6 ]
  %.16596 = phi ptr [ %18, %17 ], [ %.064, %6 ]
  %9 = add i8 %8, -58
  %10 = icmp ult i8 %9, -10
  br i1 %10, label %.critedge, label %11

11:                                               ; preds = %.lr.ph
  %12 = icmp slt i32 %.297, 63
  br i1 %12, label %13, label %17

13:                                               ; preds = %11
  %14 = add nsw i32 %.297, 1
  %15 = sext i32 %.297 to i64
  %16 = getelementptr inbounds i8, ptr %1, i64 %15
  store i8 %8, ptr %16, align 1, !tbaa !4
  br label %17

17:                                               ; preds = %13, %11
  %.3 = phi i32 [ %14, %13 ], [ %.297, %11 ]
  %18 = getelementptr inbounds nuw i8, ptr %.16596, i64 1
  %19 = load i8, ptr %18, align 1, !tbaa !4
  %.not = icmp eq i8 %19, 0
  br i1 %.not, label %.critedge4, label %.lr.ph, !llvm.loop !256

.critedge:                                        ; preds = %.lr.ph
  %20 = icmp eq i8 %8, 46
  br i1 %20, label %21, label %.critedge2

21:                                               ; preds = %.critedge
  %22 = icmp slt i32 %.297, 63
  br i1 %22, label %23, label %27

23:                                               ; preds = %21
  %24 = add nsw i32 %.297, 1
  %25 = sext i32 %.297 to i64
  %26 = getelementptr inbounds i8, ptr %1, i64 %25
  store i8 46, ptr %26, align 1, !tbaa !4
  br label %27

27:                                               ; preds = %23, %21
  %.5 = phi i32 [ %24, %23 ], [ %.297, %21 ]
  %.36799 = getelementptr inbounds nuw i8, ptr %.16596, i64 1
  %28 = load i8, ptr %.36799, align 1, !tbaa !4
  %.not76100 = icmp eq i8 %28, 0
  br i1 %.not76100, label %.critedge4, label %.lr.ph103

.lr.ph103:                                        ; preds = %27, %38
  %29 = phi i8 [ %39, %38 ], [ %28, %27 ]
  %.367102 = phi ptr [ %.367, %38 ], [ %.36799, %27 ]
  %.6101 = phi i32 [ %.7, %38 ], [ %.5, %27 ]
  %30 = add i8 %29, -58
  %31 = icmp ult i8 %30, -10
  br i1 %31, label %.critedge2, label %32

32:                                               ; preds = %.lr.ph103
  %33 = icmp slt i32 %.6101, 63
  br i1 %33, label %34, label %38

34:                                               ; preds = %32
  %35 = add nsw i32 %.6101, 1
  %36 = sext i32 %.6101 to i64
  %37 = getelementptr inbounds i8, ptr %1, i64 %36
  store i8 %29, ptr %37, align 1, !tbaa !4
  br label %38

38:                                               ; preds = %34, %32
  %.7 = phi i32 [ %35, %34 ], [ %.6101, %32 ]
  %.367 = getelementptr inbounds nuw i8, ptr %.367102, i64 1
  %39 = load i8, ptr %.367, align 1, !tbaa !4
  %.not76 = icmp eq i8 %39, 0
  br i1 %.not76, label %.critedge4, label %.lr.ph103, !llvm.loop !257

.critedge2:                                       ; preds = %.lr.ph103, %.critedge
  %.pr = phi i8 [ %8, %.critedge ], [ %29, %.lr.ph103 ]
  %.266.ph = phi ptr [ %.16596, %.critedge ], [ %.367102, %.lr.ph103 ]
  %.4.ph = phi i32 [ %.297, %.critedge ], [ %.6101, %.lr.ph103 ]
  switch i8 %.pr, label %.critedge4 [
    i8 101, label %40
    i8 69, label %40
  ]

40:                                               ; preds = %.critedge2, %.critedge2
  %41 = getelementptr inbounds nuw i8, ptr %.266.ph, i64 1
  %42 = load i8, ptr %41, align 1, !tbaa !4
  switch i8 %42, label %43 [
    i8 109, label %.critedge4
    i8 120, label %.critedge4
  ]

43:                                               ; preds = %40
  %44 = icmp slt i32 %.4.ph, 63
  br i1 %44, label %45, label %49

45:                                               ; preds = %43
  %46 = add nsw i32 %.4.ph, 1
  %47 = sext i32 %.4.ph to i64
  %48 = getelementptr inbounds i8, ptr %1, i64 %47
  store i8 %.pr, ptr %48, align 1, !tbaa !4
  %.pr86 = load i8, ptr %41, align 1, !tbaa !4
  br label %49

49:                                               ; preds = %45, %43
  %50 = phi i8 [ %.pr86, %45 ], [ %42, %43 ]
  %.9 = phi i32 [ %46, %45 ], [ %.4.ph, %43 ]
  switch i8 %50, label %59 [
    i8 45, label %51
    i8 43, label %51
  ]

51:                                               ; preds = %49, %49
  %52 = icmp slt i32 %.9, 63
  br i1 %52, label %53, label %57

53:                                               ; preds = %51
  %54 = add nsw i32 %.9, 1
  %55 = sext i32 %.9 to i64
  %56 = getelementptr inbounds i8, ptr %1, i64 %55
  store i8 %50, ptr %56, align 1, !tbaa !4
  br label %57

57:                                               ; preds = %53, %51
  %.11 = phi i32 [ %54, %53 ], [ %.9, %51 ]
  %58 = getelementptr inbounds nuw i8, ptr %.266.ph, i64 2
  %.pre121 = load i8, ptr %58, align 1, !tbaa !4
  br label %59

59:                                               ; preds = %49, %57
  %60 = phi i8 [ %.pre121, %57 ], [ %50, %49 ]
  %.569 = phi ptr [ %58, %57 ], [ %41, %49 ]
  %.10 = phi i32 [ %.11, %57 ], [ %.9, %49 ]
  %61 = add i8 %60, -58
  %62 = icmp ult i8 %61, -10
  br i1 %62, label %.critedge4, label %.lr.ph108

.lr.ph108:                                        ; preds = %59, %69
  %63 = phi i8 [ %71, %69 ], [ %60, %59 ]
  %.12107 = phi i32 [ %.13, %69 ], [ %.10, %59 ]
  %.670106 = phi ptr [ %70, %69 ], [ %.569, %59 ]
  %64 = icmp slt i32 %.12107, 63
  br i1 %64, label %65, label %69

65:                                               ; preds = %.lr.ph108
  %66 = add nsw i32 %.12107, 1
  %67 = sext i32 %.12107 to i64
  %68 = getelementptr inbounds i8, ptr %1, i64 %67
  store i8 %63, ptr %68, align 1, !tbaa !4
  br label %69

69:                                               ; preds = %65, %.lr.ph108
  %.13 = phi i32 [ %66, %65 ], [ %.12107, %.lr.ph108 ]
  %70 = getelementptr inbounds nuw i8, ptr %.670106, i64 1
  %71 = load i8, ptr %70, align 1, !tbaa !4
  %72 = add i8 %71, -58
  %73 = icmp ult i8 %72, -10
  br i1 %73, label %.critedge4, label %.lr.ph108, !llvm.loop !258

.critedge4:                                       ; preds = %17, %38, %69, %6, %27, %59, %40, %40, %.critedge2
  %.468 = phi ptr [ %.266.ph, %40 ], [ %.266.ph, %.critedge2 ], [ %.266.ph, %40 ], [ %.569, %59 ], [ %.36799, %27 ], [ %.064, %6 ], [ %70, %69 ], [ %.367, %38 ], [ %18, %17 ]
  %.8 = phi i32 [ %.4.ph, %40 ], [ %.4.ph, %.critedge2 ], [ %.4.ph, %40 ], [ %.10, %59 ], [ %.5, %27 ], [ %.0, %6 ], [ %.13, %69 ], [ %.7, %38 ], [ %.3, %17 ]
  %74 = sext i32 %.8 to i64
  %75 = getelementptr inbounds i8, ptr %1, i64 %74
  store i8 0, ptr %75, align 1, !tbaa !4
  ret ptr %.468
}